target datalayout = "e-m:e-p270:32:32-p271:32:32-p272:64:64-i64:64-i128:128-f80:128-n8:16:32:64-S128"
target triple = "x86_64-unknown-linux-gnu"

%struct.Visitor = type { ptr, ptr, ptr, ptr, ptr, ptr, ptr, ptr, ptr, ptr, ptr, ptr, ptr, ptr, ptr, ptr, ptr, ptr, ptr, ptr, i32, %struct.CompatPolicy, ptr, ptr }
%struct.CompatPolicy = type { i8, i32, i8, i32, i8, i32, i8, i32 }
%struct.QEnumLookup = type { ptr, ptr, i32 }
%struct.timeval = type { i64, i64 }

@.str.1 = private unnamed_addr constant [31 x i8] c"../qemu/qapi/qapi-visit-core.c\00", align 1
@.str.18 = private unnamed_addr constant [14 x i8] c"obj && lookup\00", align 1
@__PRETTY_FUNCTION__.visit_type_enum = private unnamed_addr constant [85 x i8] c"_Bool visit_type_enum(Visitor *, const char *, int *, const QEnumLookup *, Error **)\00", align 1
@trace_events_enabled_count = external global i32, align 4
@message_with_timestamp = external global i8, align 1
@qemu_loglevel = external global i32, align 4
@.str.54 = private unnamed_addr constant [5 x i8] c"null\00", align 1
@_TRACE_VISIT_TYPE_ENUM_DSTATE = external global i16, align 2
@.str.82 = private unnamed_addr constant [50 x i8] c"%d@%zu.%06zu:visit_type_enum v=%p name=%s obj=%p\0A\00", align 1
@.str.83 = private unnamed_addr constant [37 x i8] c"visit_type_enum v=%p name=%s obj=%p\0A\00", align 1
@__func__.input_type_enum = private unnamed_addr constant [16 x i8] c"input_type_enum\00", align 1
@.str.84 = private unnamed_addr constant [42 x i8] c"Parameter '%s' does not accept value '%s'\00", align 1
@.str.85 = private unnamed_addr constant [6 x i8] c"value\00", align 1

; Function Attrs: nounwind sspstrong uwtable
define internal zeroext i1 @qemu_loglevel_mask(i32 noundef %mask) #0 {
entry:
  %mask.addr = alloca i32, align 4
  store i32 %mask, ptr %mask.addr, align 4
  %0 = load i32, ptr @qemu_loglevel, align 4
  %1 = load i32, ptr %mask.addr, align 4
  %and = and i32 %0, %1
  %cmp = icmp ne i32 %and, 0
  ret i1 %cmp
}

; Function Attrs: nounwind sspstrong uwtable
define internal void @g_autoptr_cleanup_generic_gfree(ptr noundef %p) #0 {
entry:
  %p.addr = alloca ptr, align 8
  %pp = alloca ptr, align 8
  store ptr %p, ptr %p.addr, align 8
  %0 = load ptr, ptr %p.addr, align 8
  store ptr %0, ptr %pp, align 8
  %1 = load ptr, ptr %pp, align 8
  %2 = load ptr, ptr %1, align 8
  call void @g_free(ptr noundef %2)
  ret void
}

; Function Attrs: nounwind sspstrong uwtable
define internal void @_nocheck__trace_visit_type_enum(ptr noundef %v, ptr noundef %name, ptr noundef %obj) #0 {
entry:
  %v.addr = alloca ptr, align 8
  %name.addr = alloca ptr, align 8
  %obj.addr = alloca ptr, align 8
  %_now = alloca %struct.timeval, align 8
  store ptr %v, ptr %v.addr, align 8
  store ptr %name, ptr %name.addr, align 8
  store ptr %obj, ptr %obj.addr, align 8
  %0 = load i32, ptr @trace_events_enabled_count, align 4
  %tobool = icmp ne i32 %0, 0
  %lnot = xor i1 %tobool, true
  %lnot1 = xor i1 %lnot, true
  %lnot.ext = zext i1 %lnot1 to i32
  %conv = sext i32 %lnot.ext to i64
  %tobool2 = icmp ne i64 %conv, 0
  br i1 %tobool2, label %land.lhs.true, label %if.end11

land.lhs.true:                                    ; preds = %entry
  %1 = load i16, ptr @_TRACE_VISIT_TYPE_ENUM_DSTATE, align 2
  %conv3 = zext i16 %1 to i32
  %tobool4 = icmp ne i32 %conv3, 0
  br i1 %tobool4, label %land.lhs.true5, label %if.end11

land.lhs.true5:                                   ; preds = %land.lhs.true
  %call = call zeroext i1 @qemu_loglevel_mask(i32 noundef 32768)
  br i1 %call, label %if.then, label %if.end11

if.then:                                          ; preds = %land.lhs.true5
  %2 = load i8, ptr @message_with_timestamp, align 1
  %tobool7 = trunc i8 %2 to i1
  br i1 %tobool7, label %if.then8, label %if.else

if.then8:                                         ; preds = %if.then
  %call9 = call i32 @gettimeofday(ptr noundef %_now, ptr noundef null) #6
  %call10 = call i32 @qemu_get_thread_id()
  %tv_sec = getelementptr inbounds %struct.timeval, ptr %_now, i32 0, i32 0
  %3 = load i64, ptr %tv_sec, align 8
  %tv_usec = getelementptr inbounds %struct.timeval, ptr %_now, i32 0, i32 1
  %4 = load i64, ptr %tv_usec, align 8
  %5 = load ptr, ptr %v.addr, align 8
  %6 = load ptr, ptr %name.addr, align 8
  %7 = load ptr, ptr %obj.addr, align 8
  call void (ptr, ...) @qemu_log(ptr noundef @.str.82, i32 noundef %call10, i64 noundef %3, i64 noundef %4, ptr noundef %5, ptr noundef %6, ptr noundef %7)
  br label %if.end

if.else:                                          ; preds = %if.then
  %8 = load ptr, ptr %v.addr, align 8
  %9 = load ptr, ptr %name.addr, align 8
  %10 = load ptr, ptr %obj.addr, align 8
  call void (ptr, ...) @qemu_log(ptr noundef @.str.83, ptr noundef %8, ptr noundef %9, ptr noundef %10)
  br label %if.end

if.end:                                           ; preds = %if.else, %if.then8
  br label %if.end11

if.end11:                                         ; preds = %if.end, %land.lhs.true5, %land.lhs.true, %entry
  ret void
}

; Function Attrs: nounwind sspstrong uwtable
define internal zeroext i1 @output_type_enum(ptr noundef %v, ptr noundef %name, ptr noundef %obj, ptr noundef %lookup, ptr noundef %errp) #0 {
entry:
  %v.addr = alloca ptr, align 8
  %name.addr = alloca ptr, align 8
  %obj.addr = alloca ptr, align 8
  %lookup.addr = alloca ptr, align 8
  %errp.addr = alloca ptr, align 8
  %value = alloca i32, align 4
  %enum_str = alloca ptr, align 8
  store ptr %v, ptr %v.addr, align 8
  store ptr %name, ptr %name.addr, align 8
  store ptr %obj, ptr %obj.addr, align 8
  store ptr %lookup, ptr %lookup.addr, align 8
  store ptr %errp, ptr %errp.addr, align 8
  %0 = load ptr, ptr %obj.addr, align 8
  %1 = load i32, ptr %0, align 4
  store i32 %1, ptr %value, align 4
  %2 = load ptr, ptr %lookup.addr, align 8
  %3 = load i32, ptr %value, align 4
  %call = call ptr @qapi_enum_lookup(ptr noundef %2, i32 noundef %3)
  store ptr %call, ptr %enum_str, align 8
  %4 = load ptr, ptr %v.addr, align 8
  %5 = load ptr, ptr %name.addr, align 8
  %6 = load ptr, ptr %errp.addr, align 8
  %call1 = call zeroext i1 @visit_type_str(ptr noundef %4, ptr noundef %5, ptr noundef %enum_str, ptr noundef %6)
  ret i1 %call1
}

; Function Attrs: nounwind sspstrong uwtable
define internal zeroext i1 @input_type_enum(ptr noundef %v, ptr noundef %name, ptr noundef %obj, ptr noundef %lookup, ptr noundef %errp) #0 {
entry:
  %retval = alloca i1, align 1
  %v.addr = alloca ptr, align 8
  %name.addr = alloca ptr, align 8
  %obj.addr = alloca ptr, align 8
  %lookup.addr = alloca ptr, align 8
  %errp.addr = alloca ptr, align 8
  %value = alloca i64, align 8
  %enum_str = alloca ptr, align 8
  %cleanup.dest.slot = alloca i32, align 4
  store ptr %v, ptr %v.addr, align 8
  store ptr %name, ptr %name.addr, align 8
  store ptr %obj, ptr %obj.addr, align 8
  store ptr %lookup, ptr %lookup.addr, align 8
  store ptr %errp, ptr %errp.addr, align 8
  store ptr null, ptr %enum_str, align 8
  %0 = load ptr, ptr %v.addr, align 8
  %1 = load ptr, ptr %name.addr, align 8
  %2 = load ptr, ptr %errp.addr, align 8
  %call = call zeroext i1 @visit_type_str(ptr noundef %0, ptr noundef %1, ptr noundef %enum_str, ptr noundef %2)
  br i1 %call, label %if.end, label %if.then

if.then:                                          ; preds = %entry
  store i1 false, ptr %retval, align 1
  store i32 1, ptr %cleanup.dest.slot, align 4
  br label %cleanup

if.end:                                           ; preds = %entry
  %3 = load ptr, ptr %lookup.addr, align 8
  %4 = load ptr, ptr %enum_str, align 8
  %call1 = call i32 @qapi_enum_parse(ptr noundef %3, ptr noundef %4, i32 noundef -1, ptr noundef null)
  %conv = sext i32 %call1 to i64
  store i64 %conv, ptr %value, align 8
  %5 = load i64, ptr %value, align 8
  %cmp = icmp slt i64 %5, 0
  br i1 %cmp, label %if.then3, label %if.end4

if.then3:                                         ; preds = %if.end
  %6 = load ptr, ptr %errp.addr, align 8
  %7 = load ptr, ptr %name.addr, align 8
  %tobool = icmp ne ptr %7, null
  br i1 %tobool, label %cond.true, label %cond.false

cond.true:                                        ; preds = %if.then3
  %8 = load ptr, ptr %name.addr, align 8
  br label %cond.end

cond.false:                                       ; preds = %if.then3
  br label %cond.end

cond.end:                                         ; preds = %cond.false, %cond.true
  %cond = phi ptr [ %8, %cond.true ], [ @.str.54, %cond.false ]
  %9 = load ptr, ptr %enum_str, align 8
  call void (ptr, ptr, i32, ptr, ptr, ...) @error_setg_internal(ptr noundef %6, ptr noundef @.str.1, i32 noundef 408, ptr noundef @__func__.input_type_enum, ptr noundef @.str.84, ptr noundef %cond, ptr noundef %9)
  store i1 false, ptr %retval, align 1
  store i32 1, ptr %cleanup.dest.slot, align 4
  br label %cleanup

if.end4:                                          ; preds = %if.end
  %10 = load ptr, ptr %lookup.addr, align 8
  %special_features = getelementptr inbounds %struct.QEnumLookup, ptr %10, i32 0, i32 1
  %11 = load ptr, ptr %special_features, align 8
  %tobool5 = icmp ne ptr %11, null
  br i1 %tobool5, label %land.lhs.true, label %if.end10

land.lhs.true:                                    ; preds = %if.end4
  %12 = load ptr, ptr %lookup.addr, align 8
  %special_features6 = getelementptr inbounds %struct.QEnumLookup, ptr %12, i32 0, i32 1
  %13 = load ptr, ptr %special_features6, align 8
  %14 = load i64, ptr %value, align 8
  %arrayidx = getelementptr i8, ptr %13, i64 %14
  %15 = load i8, ptr %arrayidx, align 1
  %conv7 = zext i8 %15 to i32
  %16 = load ptr, ptr %v.addr, align 8
  %compat_policy = getelementptr inbounds %struct.Visitor, ptr %16, i32 0, i32 21
  %17 = load ptr, ptr %enum_str, align 8
  %18 = load ptr, ptr %errp.addr, align 8
  %call8 = call zeroext i1 @compat_policy_input_ok(i32 noundef %conv7, ptr noundef %compat_policy, i32 noundef 0, ptr noundef @.str.85, ptr noundef %17, ptr noundef %18)
  br i1 %call8, label %if.end10, label %if.then9

if.then9:                                         ; preds = %land.lhs.true
  store i1 false, ptr %retval, align 1
  store i32 1, ptr %cleanup.dest.slot, align 4
  br label %cleanup

if.end10:                                         ; preds = %land.lhs.true, %if.end4
  %19 = load i64, ptr %value, align 8
  %conv11 = trunc i64 %19 to i32
  %20 = load ptr, ptr %obj.addr, align 8
  store i32 %conv11, ptr %20, align 4
  store i1 true, ptr %retval, align 1
  store i32 1, ptr %cleanup.dest.slot, align 4
  br label %cleanup

cleanup:                                          ; preds = %if.end10, %if.then9, %cond.end, %if.then
  call void @g_autoptr_cleanup_generic_gfree(ptr noundef %enum_str)
  %21 = load i1, ptr %retval, align 1
  ret i1 %21
}

; Function Attrs: nounwind sspstrong uwtable
define internal void @trace_visit_type_enum(ptr noundef %v, ptr noundef %name, ptr noundef %obj) #0 {
entry:
  %v.addr = alloca ptr, align 8
  %name.addr = alloca ptr, align 8
  %obj.addr = alloca ptr, align 8
  store ptr %v, ptr %v.addr, align 8
  store ptr %name, ptr %name.addr, align 8
  store ptr %obj, ptr %obj.addr, align 8
  %0 = load ptr, ptr %v.addr, align 8
  %1 = load ptr, ptr %name.addr, align 8
  %2 = load ptr, ptr %obj.addr, align 8
  call void @_nocheck__trace_visit_type_enum(ptr noundef %0, ptr noundef %1, ptr noundef %2)
  ret void
}

; Function Attrs: nounwind sspstrong uwtable
define dso_local zeroext i1 @visit_type_enum(ptr noundef %v, ptr noundef %name, ptr noundef %obj, ptr noundef %lookup, ptr noundef %errp) #0 {
entry:
  %retval = alloca i1, align 1
  %v.addr = alloca ptr, align 8
  %name.addr = alloca ptr, align 8
  %obj.addr = alloca ptr, align 8
  %lookup.addr = alloca ptr, align 8
  %errp.addr = alloca ptr, align 8
  store ptr %v, ptr %v.addr, align 8
  store ptr %name, ptr %name.addr, align 8
  store ptr %obj, ptr %obj.addr, align 8
  store ptr %lookup, ptr %lookup.addr, align 8
  store ptr %errp, ptr %errp.addr, align 8
  %0 = load ptr, ptr %obj.addr, align 8
  %tobool = icmp ne ptr %0, null
  br i1 %tobool, label %land.lhs.true, label %if.else

land.lhs.true:                                    ; preds = %entry
  %1 = load ptr, ptr %lookup.addr, align 8
  %tobool1 = icmp ne ptr %1, null
  br i1 %tobool1, label %if.then, label %if.else

if.then:                                          ; preds = %land.lhs.true
  br label %if.end

if.else:                                          ; preds = %land.lhs.true, %entry
  call void @__assert_fail(ptr noundef @.str.18, ptr noundef @.str.1, i32 noundef 427, ptr noundef @__PRETTY_FUNCTION__.visit_type_enum) #5
  unreachable

if.end:                                           ; preds = %if.then
  %2 = load ptr, ptr %v.addr, align 8
  %3 = load ptr, ptr %name.addr, align 8
  %4 = load ptr, ptr %obj.addr, align 8
  call void @trace_visit_type_enum(ptr noundef %2, ptr noundef %3, ptr noundef %4)
  %5 = load ptr, ptr %v.addr, align 8
  %type = getelementptr inbounds %struct.Visitor, ptr %5, i32 0, i32 20
  %6 = load i32, ptr %type, align 8
  switch i32 %6, label %sw.default [
    i32 1, label %sw.bb
    i32 2, label %sw.bb2
    i32 3, label %sw.bb4
    i32 4, label %sw.bb5
  ]

sw.bb:                                            ; preds = %if.end
  %7 = load ptr, ptr %v.addr, align 8
  %8 = load ptr, ptr %name.addr, align 8
  %9 = load ptr, ptr %obj.addr, align 8
  %10 = load ptr, ptr %lookup.addr, align 8
  %11 = load ptr, ptr %errp.addr, align 8
  %call = call zeroext i1 @input_type_enum(ptr noundef %7, ptr noundef %8, ptr noundef %9, ptr noundef %10, ptr noundef %11)
  store i1 %call, ptr %retval, align 1
  br label %return

sw.bb2:                                           ; preds = %if.end
  %12 = load ptr, ptr %v.addr, align 8
  %13 = load ptr, ptr %name.addr, align 8
  %14 = load ptr, ptr %obj.addr, align 8
  %15 = load ptr, ptr %lookup.addr, align 8
  %16 = load ptr, ptr %errp.addr, align 8
  %call3 = call zeroext i1 @output_type_enum(ptr noundef %12, ptr noundef %13, ptr noundef %14, ptr noundef %15, ptr noundef %16)
  store i1 %call3, ptr %retval, align 1
  br label %return

sw.bb4:                                           ; preds = %if.end
  store i1 true, ptr %retval, align 1
  br label %return

sw.bb5:                                           ; preds = %if.end
  store i1 true, ptr %retval, align 1
  br label %return

sw.default:                                       ; preds = %if.end
  call void @abort() #5
  unreachable

return:                                           ; preds = %sw.bb5, %sw.bb4, %sw.bb2, %sw.bb
  %17 = load i1, ptr %retval, align 1
  ret i1 %17
}