; Function Attrs: nounwind sspstrong uwtable
define dso_local zeroext i1 @visit_type_enum(ptr noundef %v, ptr noundef %name, ptr noundef %obj, ptr noundef %lookup, ptr noundef %errp) local_unnamed_addr #0 {
entry:
  %enum_str.i12 = alloca ptr, align 8
  %enum_str.i = alloca ptr, align 8
  %_now.i.i = alloca %struct.timeval, align 8
  %tobool = icmp ne ptr %obj, null
  %tobool1 = icmp ne ptr %lookup, null
  %or.cond = and i1 %tobool, %tobool1
  br i1 %or.cond, label %if.end, label %if.else

if.else:                                          ; preds = %entry
  tail call void @__assert_fail(ptr noundef nonnull @.str.18, ptr noundef nonnull @.str.1, i32 noundef 427, ptr noundef nonnull @__PRETTY_FUNCTION__.visit_type_enum) #9
  unreachable

if.end:                                           ; preds = %entry
  call void @llvm.lifetime.start.p0(i64 16, ptr nonnull %_now.i.i)
  %0 = load i32, ptr @trace_events_enabled_count, align 4
  %tobool.i.i = icmp ne i32 %0, 0
  %1 = load i16, ptr @_TRACE_VISIT_TYPE_ENUM_DSTATE, align 2
  %tobool4.i.i = icmp ne i16 %1, 0
  %or.cond.i.i = select i1 %tobool.i.i, i1 %tobool4.i.i, i1 false
  br i1 %or.cond.i.i, label %land.lhs.true5.i.i, label %trace_visit_type_enum.exit

land.lhs.true5.i.i:                               ; preds = %if.end
  %2 = load i32, ptr @qemu_loglevel, align 4
  %and.i.i.i = and i32 %2, 32768
  %cmp.i.not.i.i = icmp eq i32 %and.i.i.i, 0
  br i1 %cmp.i.not.i.i, label %trace_visit_type_enum.exit, label %if.then.i.i

if.then.i.i:                                      ; preds = %land.lhs.true5.i.i
  %3 = load i8, ptr @message_with_timestamp, align 1
  %tobool7.i.i = trunc i8 %3 to i1
  br i1 %tobool7.i.i, label %if.then8.i.i, label %if.else.i.i

if.then8.i.i:                                     ; preds = %if.then.i.i
  %call9.i.i = call i32 @gettimeofday(ptr noundef nonnull %_now.i.i, ptr noundef null) #10
  %call10.i.i = tail call i32 @qemu_get_thread_id() #10
  %4 = load i64, ptr %_now.i.i, align 8
  %tv_usec.i.i = getelementptr inbounds nuw i8, ptr %_now.i.i, i64 8
  %5 = load i64, ptr %tv_usec.i.i, align 8
  tail call void (ptr, ...) @qemu_log(ptr noundef nonnull @.str.82, i32 noundef %call10.i.i, i64 noundef %4, i64 noundef %5, ptr noundef %v, ptr noundef %name, ptr noundef nonnull %obj) #10
  br label %trace_visit_type_enum.exit

if.else.i.i:                                      ; preds = %if.then.i.i
  tail call void (ptr, ...) @qemu_log(ptr noundef nonnull @.str.83, ptr noundef %v, ptr noundef %name, ptr noundef nonnull %obj) #10
  br label %trace_visit_type_enum.exit

trace_visit_type_enum.exit:                       ; preds = %if.end, %land.lhs.true5.i.i, %if.then8.i.i, %if.else.i.i
  call void @llvm.lifetime.end.p0(i64 16, ptr nonnull %_now.i.i)
  %type = getelementptr inbounds nuw i8, ptr %v, i64 160
  %6 = load i32, ptr %type, align 8
  switch i32 %6, label %sw.default [
    i32 1, label %sw.bb
    i32 2, label %sw.bb2
    i32 3, label %return
    i32 4, label %return
  ]

sw.bb:                                            ; preds = %trace_visit_type_enum.exit
  call void @llvm.lifetime.start.p0(i64 8, ptr nonnull %enum_str.i)
  store ptr null, ptr %enum_str.i, align 8
  %call.i = call zeroext i1 @visit_type_str(ptr noundef nonnull %v, ptr noundef %name, ptr noundef nonnull %enum_str.i, ptr noundef %errp)
  br i1 %call.i, label %if.end.i, label %input_type_enum.exit

if.end.i:                                         ; preds = %sw.bb
  %7 = load ptr, ptr %enum_str.i, align 8
  %call1.i = call i32 @qapi_enum_parse(ptr noundef nonnull %lookup, ptr noundef %7, i32 noundef -1, ptr noundef null) #10
  %conv.i = sext i32 %call1.i to i64
  %cmp.i = icmp slt i32 %call1.i, 0
  br i1 %cmp.i, label %if.then3.i, label %if.end4.i

if.then3.i:                                       ; preds = %if.end.i
  %tobool.not.i = icmp eq ptr %name, null
  %cond.i = select i1 %tobool.not.i, ptr @.str.54, ptr %name
  %8 = load ptr, ptr %enum_str.i, align 8
  call void (ptr, ptr, i32, ptr, ptr, ...) @error_setg_internal(ptr noundef %errp, ptr noundef nonnull @.str.1, i32 noundef 408, ptr noundef nonnull @__func__.input_type_enum, ptr noundef nonnull @.str.84, ptr noundef nonnull %cond.i, ptr noundef %8) #10
  br label %input_type_enum.exit

if.end4.i:                                        ; preds = %if.end.i
  %special_features.i = getelementptr inbounds nuw i8, ptr %lookup, i64 8
  %9 = load ptr, ptr %special_features.i, align 8
  %tobool5.not.i = icmp eq ptr %9, null
  br i1 %tobool5.not.i, label %if.end10.i, label %land.lhs.true.i

land.lhs.true.i:                                  ; preds = %if.end4.i
  %arrayidx.i = getelementptr i8, ptr %9, i64 %conv.i
  %10 = load i8, ptr %arrayidx.i, align 1
  %conv7.i = zext i8 %10 to i32
  %compat_policy.i = getelementptr inbounds nuw i8, ptr %v, i64 164
  %11 = load ptr, ptr %enum_str.i, align 8
  %call8.i = call zeroext i1 @compat_policy_input_ok(i32 noundef %conv7.i, ptr noundef nonnull %compat_policy.i, i32 noundef 0, ptr noundef nonnull @.str.85, ptr noundef %11, ptr noundef %errp) #10
  br i1 %call8.i, label %if.end10.i, label %input_type_enum.exit

if.end10.i:                                       ; preds = %land.lhs.true.i, %if.end4.i
  store i32 %call1.i, ptr %obj, align 4
  br label %input_type_enum.exit

input_type_enum.exit:                             ; preds = %sw.bb, %if.then3.i, %land.lhs.true.i, %if.end10.i
  %retval.0.i = phi i1 [ false, %if.then3.i ], [ true, %if.end10.i ], [ false, %sw.bb ], [ false, %land.lhs.true.i ]
  %enum_str.val.i = load ptr, ptr %enum_str.i, align 8
  call void @g_free(ptr noundef %enum_str.val.i) #10
  call void @llvm.lifetime.end.p0(i64 8, ptr nonnull %enum_str.i)
  br label %return

sw.bb2:                                           ; preds = %trace_visit_type_enum.exit
  %obj.val = load i32, ptr %obj, align 4
  call void @llvm.lifetime.start.p0(i64 8, ptr nonnull %enum_str.i12)
  %call.i13 = tail call ptr @qapi_enum_lookup(ptr noundef nonnull %lookup, i32 noundef %obj.val) #10
  store ptr %call.i13, ptr %enum_str.i12, align 8
  %call1.i14 = call zeroext i1 @visit_type_str(ptr noundef nonnull %v, ptr noundef %name, ptr noundef nonnull %enum_str.i12, ptr noundef %errp)
  call void @llvm.lifetime.end.p0(i64 8, ptr nonnull %enum_str.i12)
  br label %return

sw.default:                                       ; preds = %trace_visit_type_enum.exit
  tail call void @abort() #9
  unreachable

return:                                           ; preds = %trace_visit_type_enum.exit, %trace_visit_type_enum.exit, %sw.bb2, %input_type_enum.exit
  %retval.0 = phi i1 [ %call1.i14, %sw.bb2 ], [ %retval.0.i, %input_type_enum.exit ], [ true, %trace_visit_type_enum.exit ], [ true, %trace_visit_type_enum.exit ]
  ret i1 %retval.0
}